target datalayout = "e-m:e-p270:32:32-p271:32:32-p272:64:64-i64:64-i128:128-f80:128-n8:16:32:64-S128"
target triple = "x86_64-pc-linux-gnu"

%struct.ossl_ml_kem_scalar_st = type { [256 x i16] }

; Function Attrs: nounwind uwtable
define internal i32 @cbd_2(ptr noundef %0, ptr noundef %1, ptr noundef %2, ptr noundef %3) #0 {
  %5 = alloca i32, align 4
  %6 = alloca ptr, align 8
  %7 = alloca ptr, align 8
  %8 = alloca ptr, align 8
  %9 = alloca ptr, align 8
  %10 = alloca ptr, align 8
  %11 = alloca ptr, align 8
  %12 = alloca [128 x i8], align 16
  %13 = alloca ptr, align 8
  %14 = alloca i16, align 2
  %15 = alloca i16, align 2
  %16 = alloca i8, align 1
  %17 = alloca i32, align 4
  store ptr %0, ptr %6, align 8, !tbaa !40
  store ptr %1, ptr %7, align 8, !tbaa !25
  store ptr %2, ptr %8, align 8, !tbaa !44
  store ptr %3, ptr %9, align 8, !tbaa !3
  call void @llvm.lifetime.start.p0(i64 8, ptr %10) #8
  %18 = load ptr, ptr %6, align 8, !tbaa !40
  %19 = getelementptr inbounds nuw %struct.ossl_ml_kem_scalar_st, ptr %18, i32 0, i32 0
  %20 = getelementptr inbounds [256 x i16], ptr %19, i64 0, i64 0
  store ptr %20, ptr %10, align 8, !tbaa !53
  call void @llvm.lifetime.start.p0(i64 8, ptr %11) #8
  %21 = load ptr, ptr %10, align 8, !tbaa !53
  %22 = getelementptr inbounds i16, ptr %21, i64 256
  store ptr %22, ptr %11, align 8, !tbaa !53
  call void @llvm.lifetime.start.p0(i64 128, ptr %12) #8
  call void @llvm.lifetime.start.p0(i64 8, ptr %13) #8
  %23 = getelementptr inbounds [128 x i8], ptr %12, i64 0, i64 0
  store ptr %23, ptr %13, align 8, !tbaa !25
  call void @llvm.lifetime.start.p0(i64 2, ptr %14) #8
  call void @llvm.lifetime.start.p0(i64 2, ptr %15) #8
  call void @llvm.lifetime.start.p0(i64 1, ptr %16) #8
  %24 = getelementptr inbounds [128 x i8], ptr %12, i64 0, i64 0
  %25 = load ptr, ptr %7, align 8, !tbaa !25
  %26 = load ptr, ptr %8, align 8, !tbaa !44
  %27 = load ptr, ptr %9, align 8, !tbaa !3
  %28 = call i32 @prf(ptr noundef %24, i64 noundef 128, ptr noundef %25, ptr noundef %26, ptr noundef %27)
  %29 = icmp ne i32 %28, 0
  br i1 %29, label %31, label %30

30:                                               ; preds = %4
  store i32 0, ptr %5, align 4
  store i32 1, ptr %17, align 4
  br label %114

31:                                               ; preds = %4
  br label %32

32:                                               ; preds = %109, %31
  %33 = load ptr, ptr %13, align 8, !tbaa !25
  %34 = getelementptr inbounds nuw i8, ptr %33, i32 1
  store ptr %34, ptr %13, align 8, !tbaa !25
  %35 = load i8, ptr %33, align 1, !tbaa !48
  store i8 %35, ptr %16, align 1, !tbaa !48
  %36 = load i8, ptr %16, align 1, !tbaa !48
  %37 = zext i8 %36 to i32
  %38 = and i32 %37, 1
  %39 = load i8, ptr %16, align 1, !tbaa !48
  %40 = zext i8 %39 to i32
  %41 = ashr i32 %40, 1
  %42 = and i32 %41, 1
  %43 = add nsw i32 %38, %42
  %44 = trunc i32 %43 to i16
  store i16 %44, ptr %14, align 2, !tbaa !55
  %45 = load i8, ptr %16, align 1, !tbaa !48
  %46 = zext i8 %45 to i32
  %47 = ashr i32 %46, 2
  %48 = and i32 %47, 1
  %49 = load i8, ptr %16, align 1, !tbaa !48
  %50 = zext i8 %49 to i32
  %51 = ashr i32 %50, 3
  %52 = and i32 %51, 1
  %53 = add nsw i32 %48, %52
  %54 = load i16, ptr %14, align 2, !tbaa !55
  %55 = zext i16 %54 to i32
  %56 = sub nsw i32 %55, %53
  %57 = trunc i32 %56 to i16
  store i16 %57, ptr %14, align 2, !tbaa !55
  %58 = load i16, ptr %14, align 2, !tbaa !55
  %59 = zext i16 %58 to i32
  %60 = ashr i32 %59, 15
  %61 = sub i32 0, %60
  %62 = trunc i32 %61 to i16
  store i16 %62, ptr %15, align 2, !tbaa !55
  %63 = load i16, ptr %14, align 2, !tbaa !55
  %64 = zext i16 %63 to i32
  %65 = load i16, ptr %15, align 2, !tbaa !55
  %66 = zext i16 %65 to i32
  %67 = and i32 3329, %66
  %68 = add nsw i32 %64, %67
  %69 = trunc i32 %68 to i16
  %70 = load ptr, ptr %10, align 8, !tbaa !53
  %71 = getelementptr inbounds nuw i16, ptr %70, i32 1
  store ptr %71, ptr %10, align 8, !tbaa !53
  store i16 %69, ptr %70, align 2, !tbaa !55
  %72 = load i8, ptr %16, align 1, !tbaa !48
  %73 = zext i8 %72 to i32
  %74 = ashr i32 %73, 4
  %75 = and i32 %74, 1
  %76 = load i8, ptr %16, align 1, !tbaa !48
  %77 = zext i8 %76 to i32
  %78 = ashr i32 %77, 5
  %79 = and i32 %78, 1
  %80 = add nsw i32 %75, %79
  %81 = trunc i32 %80 to i16
  store i16 %81, ptr %14, align 2, !tbaa !55
  %82 = load i8, ptr %16, align 1, !tbaa !48
  %83 = zext i8 %82 to i32
  %84 = ashr i32 %83, 6
  %85 = and i32 %84, 1
  %86 = load i8, ptr %16, align 1, !tbaa !48
  %87 = zext i8 %86 to i32
  %88 = ashr i32 %87, 7
  %89 = and i32 %88, 1
  %90 = add nsw i32 %85, %89
  %91 = load i16, ptr %14, align 2, !tbaa !55
  %92 = zext i16 %91 to i32
  %93 = sub nsw i32 %92, %90
  %94 = trunc i32 %93 to i16
  store i16 %94, ptr %14, align 2, !tbaa !55
  %95 = load i16, ptr %14, align 2, !tbaa !55
  %96 = zext i16 %95 to i32
  %97 = ashr i32 %96, 15
  %98 = sub i32 0, %97
  %99 = trunc i32 %98 to i16
  store i16 %99, ptr %15, align 2, !tbaa !55
  %100 = load i16, ptr %14, align 2, !tbaa !55
  %101 = zext i16 %100 to i32
  %102 = load i16, ptr %15, align 2, !tbaa !55
  %103 = zext i16 %102 to i32
  %104 = and i32 3329, %103
  %105 = add nsw i32 %101, %104
  %106 = trunc i32 %105 to i16
  %107 = load ptr, ptr %10, align 8, !tbaa !53
  %108 = getelementptr inbounds nuw i16, ptr %107, i32 1
  store ptr %108, ptr %10, align 8, !tbaa !53
  store i16 %106, ptr %107, align 2, !tbaa !55
  br label %109

109:                                              ; preds = %32
  %110 = load ptr, ptr %10, align 8, !tbaa !53
  %111 = load ptr, ptr %11, align 8, !tbaa !53
  %112 = icmp ult ptr %110, %111
  br i1 %112, label %32, label %113, !llvm.loop !65

113:                                              ; preds = %109
  store i32 1, ptr %5, align 4
  store i32 1, ptr %17, align 4
  br label %114

114:                                              ; preds = %113, %30
  call void @llvm.lifetime.end.p0(i64 1, ptr %16) #8
  call void @llvm.lifetime.end.p0(i64 2, ptr %15) #8
  call void @llvm.lifetime.end.p0(i64 2, ptr %14) #8
  call void @llvm.lifetime.end.p0(i64 8, ptr %13) #8
  call void @llvm.lifetime.end.p0(i64 128, ptr %12) #8
  call void @llvm.lifetime.end.p0(i64 8, ptr %11) #8
  call void @llvm.lifetime.end.p0(i64 8, ptr %10) #8
  %115 = load i32, ptr %5, align 4
  ret i32 %115
}