; Function Attrs: nounwind uwtable
define internal range(i32 0, 2) i32 @cbd_2(ptr noundef writeonly captures(none) %0, ptr noundef %1, ptr noundef %2, ptr noundef readonly captures(none) %3) unnamed_addr #0 {
  %5 = alloca [128 x i8], align 16
  call void @llvm.lifetime.start.p0(i64 128, ptr nonnull %5) #13
  %6 = getelementptr i8, ptr %3, i64 24
  %.val = load ptr, ptr %6, align 8, !tbaa !22
  %7 = call fastcc i32 @prf(ptr noundef %5, i64 noundef 128, ptr noundef %1, ptr noundef %2, ptr %.val)
  %.not = icmp eq i32 %7, 0
  br i1 %.not, label %.loopexit, label %.preheader

.preheader:                                       ; preds = %4, %.preheader
  %.027.idx = phi i64 [ %.027.add, %.preheader ], [ 0, %4 ]
  %.026.idx = phi i64 [ %.026.add, %.preheader ], [ 0, %4 ]
  %.027.ptr = getelementptr inbounds nuw i8, ptr %5, i64 %.027.idx
  %.026.ptr = getelementptr inbounds nuw i8, ptr %0, i64 %.026.idx
  %.027.add = add nuw nsw i64 %.027.idx, 1
  %8 = load i8, ptr %.027.ptr, align 1, !tbaa !41
  %9 = zext i8 %8 to i32
  %10 = and i32 %9, 1
  %11 = lshr i32 %9, 1
  %12 = and i32 %11, 1
  %13 = shl i32 %9, 29
  %14 = ashr i32 %13, 31
  %15 = shl i32 %9, 28
  %16 = ashr i32 %15, 31
  %17 = add nsw i32 %16, %10
  %.neg = add nsw i32 %17, %14
  %18 = add nsw i32 %.neg, %12
  %isneg = icmp slt i32 %18, 0
  %19 = select i1 %isneg, i32 3329, i32 0
  %20 = add nsw i32 %19, %18
  %21 = trunc nsw i32 %20 to i16
  %22 = getelementptr inbounds nuw i8, ptr %.026.ptr, i64 2
  store i16 %21, ptr %.026.ptr, align 2, !tbaa !36
  %23 = lshr i32 %9, 4
  %24 = and i32 %23, 1
  %25 = lshr i32 %9, 5
  %26 = and i32 %25, 1
  %27 = shl i32 %9, 25
  %28 = ashr i32 %27, 31
  %29 = lshr i32 %9, 7
  %.neg31 = sub nsw i32 %26, %29
  %30 = add nsw i32 %.neg31, %24
  %31 = add nsw i32 %30, %28
  %isneg28 = icmp slt i32 %31, 0
  %32 = select i1 %isneg28, i32 3329, i32 0
  %33 = add nsw i32 %32, %31
  %34 = trunc nsw i32 %33 to i16
  %.026.add = add nuw nsw i64 %.026.idx, 4
  store i16 %34, ptr %22, align 2, !tbaa !36
  %exitcond.not = icmp eq i64 %.027.idx, 127
  br i1 %exitcond.not, label %.loopexit, label %.preheader, !llvm.loop !78

.loopexit:                                        ; preds = %.preheader, %4
  %.0 = phi i32 [ 0, %4 ], [ 1, %.preheader ]
  call void @llvm.lifetime.end.p0(i64 128, ptr nonnull %5) #13
  ret i32 %.0
}